; Function Attrs: nounwind uwtable
define void @lv_subject_init_color(ptr noundef %0, i24 %1) local_unnamed_addr #0 {
  tail call void @lv_memset(ptr noundef %0, i8 noundef zeroext 0, i64 noundef 56) #9
  %3 = getelementptr inbounds nuw i8, ptr %0, i64 48
  %4 = load i32, ptr %3, align 8
  %5 = and i32 %4, -16
  %6 = or disjoint i32 %5, 4
  store i32 %6, ptr %3, align 8
  %7 = getelementptr inbounds nuw i8, ptr %0, i64 24
  store i24 %1, ptr %7, align 8
  %8 = getelementptr inbounds nuw i8, ptr %0, i64 32
  store i24 %1, ptr %8, align 8
  tail call void @lv_ll_init(ptr noundef %0, i32 noundef 40) #9
  ret void
}